; Function Attrs: inlinehint mustprogress nounwind uwtable
define internal fastcc void @"_ZN5boost4asio6detail7binder1INS1_19iterator_connect_opINS0_2ip3tcpENS0_9execution12any_executorIJNS6_12context_as_tIRNS0_17execution_contextEEENS6_6detail8blocking7never_tILi0EEENS6_11prefer_onlyINSD_10possibly_tILi0EEEEENSG_INSC_16outstanding_work9tracked_tILi0EEEEENSG_INSK_11untracked_tILi0EEEEENSG_INSC_12relationship6fork_tILi0EEEEENSG_INSR_14continuation_tILi0EEEEEEEENS4_23basic_resolver_iteratorIS5_EENS1_25default_connect_conditionEZ4mainE3$_1EENS_6system10error_codeEED2Ev"(ptr noundef nonnull readonly align 8 captures(none) dereferenceable(88) %0) unnamed_addr #3 align 2 personality ptr @__gxx_personality_v0 {
  %2 = getelementptr inbounds nuw i8, ptr %0, i64 40
  %3 = load ptr, ptr %2, align 8, !tbaa !113
  %.not.i.i.i.i = icmp eq ptr %3, null
  br i1 %.not.i.i.i.i, label %_ZN5boost4asio2ip23basic_resolver_iteratorINS1_3tcpEED2Ev.exit.i, label %4

4:                                                ; preds = %1
  %5 = getelementptr inbounds nuw i8, ptr %3, i64 8
  %6 = load atomic i64, ptr %5 acquire, align 8
  %7 = icmp eq i64 %6, 4294967297
  %8 = trunc i64 %6 to i32
  br i1 %7, label %9, label %17

9:                                                ; preds = %4
  store i32 0, ptr %5, align 8, !tbaa !125
  %10 = getelementptr inbounds nuw i8, ptr %3, i64 12
  store i32 0, ptr %10, align 4, !tbaa !127
  %11 = load ptr, ptr %3, align 8, !tbaa !4
  %12 = getelementptr inbounds nuw i8, ptr %11, i64 16
  %13 = load ptr, ptr %12, align 8
  tail call void %13(ptr noundef nonnull align 8 dereferenceable(16) %3) #36
  %14 = load ptr, ptr %3, align 8, !tbaa !4
  %15 = getelementptr inbounds nuw i8, ptr %14, i64 24
  %16 = load ptr, ptr %15, align 8
  tail call void %16(ptr noundef nonnull align 8 dereferenceable(16) %3) #36
  br label %_ZN5boost4asio2ip23basic_resolver_iteratorINS1_3tcpEED2Ev.exit.i

17:                                               ; preds = %4
  %18 = load i8, ptr @__libc_single_threaded, align 1, !tbaa !19
  %.not.i.i.i.i.i = icmp eq i8 %18, 0
  br i1 %.not.i.i.i.i.i, label %21, label %19

19:                                               ; preds = %17
  %20 = add nsw i32 %8, -1
  store i32 %20, ptr %5, align 4, !tbaa !21
  br label %_ZN9__gnu_cxx27__exchange_and_add_dispatchEPii.exit.i.i.i.i.i

21:                                               ; preds = %17
  %22 = atomicrmw volatile add ptr %5, i32 -1 acq_rel, align 4
  br label %_ZN9__gnu_cxx27__exchange_and_add_dispatchEPii.exit.i.i.i.i.i

_ZN9__gnu_cxx27__exchange_and_add_dispatchEPii.exit.i.i.i.i.i: ; preds = %21, %19
  %.0.i.i.i.i.i.i = phi i32 [ %8, %19 ], [ %22, %21 ]
  %23 = icmp eq i32 %.0.i.i.i.i.i.i, 1
  br i1 %23, label %24, label %_ZN5boost4asio2ip23basic_resolver_iteratorINS1_3tcpEED2Ev.exit.i, !prof !15

24:                                               ; preds = %_ZN9__gnu_cxx27__exchange_and_add_dispatchEPii.exit.i.i.i.i.i
  tail call void @_ZNSt16_Sp_counted_baseILN9__gnu_cxx12_Lock_policyE2EE24_M_release_last_use_coldEv(ptr noundef nonnull align 8 dereferenceable(16) %3) #36
  br label %_ZN5boost4asio2ip23basic_resolver_iteratorINS1_3tcpEED2Ev.exit.i

_ZN5boost4asio2ip23basic_resolver_iteratorINS1_3tcpEED2Ev.exit.i: ; preds = %24, %_ZN9__gnu_cxx27__exchange_and_add_dispatchEPii.exit.i.i.i.i.i, %9, %1
  %25 = getelementptr inbounds nuw i8, ptr %0, i64 16
  %26 = load ptr, ptr %25, align 8, !tbaa !113
  %.not.i.i.i1.i = icmp eq ptr %26, null
  br i1 %.not.i.i.i1.i, label %"_ZN5boost4asio6detail19iterator_connect_opINS0_2ip3tcpENS0_9execution12any_executorIJNS5_12context_as_tIRNS0_17execution_contextEEENS5_6detail8blocking7never_tILi0EEENS5_11prefer_onlyINSC_10possibly_tILi0EEEEENSF_INSB_16outstanding_work9tracked_tILi0EEEEENSF_INSJ_11untracked_tILi0EEEEENSF_INSB_12relationship6fork_tILi0EEEEENSF_INSQ_14continuation_tILi0EEEEEEEENS3_23basic_resolver_iteratorIS4_EENS1_25default_connect_conditionEZ4mainE3$_1ED2Ev.exit", label %27

27:                                               ; preds = %_ZN5boost4asio2ip23basic_resolver_iteratorINS1_3tcpEED2Ev.exit.i
  %28 = getelementptr inbounds nuw i8, ptr %26, i64 8
  %29 = load atomic i64, ptr %28 acquire, align 8
  %30 = icmp eq i64 %29, 4294967297
  %31 = trunc i64 %29 to i32
  br i1 %30, label %32, label %40

32:                                               ; preds = %27
  store i32 0, ptr %28, align 8, !tbaa !125
  %33 = getelementptr inbounds nuw i8, ptr %26, i64 12
  store i32 0, ptr %33, align 4, !tbaa !127
  %34 = load ptr, ptr %26, align 8, !tbaa !4
  %35 = getelementptr inbounds nuw i8, ptr %34, i64 16
  %36 = load ptr, ptr %35, align 8
  tail call void %36(ptr noundef nonnull align 8 dereferenceable(16) %26) #36
  %37 = load ptr, ptr %26, align 8, !tbaa !4
  %38 = getelementptr inbounds nuw i8, ptr %37, i64 24
  %39 = load ptr, ptr %38, align 8
  tail call void %39(ptr noundef nonnull align 8 dereferenceable(16) %26) #36
  br label %"_ZN5boost4asio6detail19iterator_connect_opINS0_2ip3tcpENS0_9execution12any_executorIJNS5_12context_as_tIRNS0_17execution_contextEEENS5_6detail8blocking7never_tILi0EEENS5_11prefer_onlyINSC_10possibly_tILi0EEEEENSF_INSB_16outstanding_work9tracked_tILi0EEEEENSF_INSJ_11untracked_tILi0EEEEENSF_INSB_12relationship6fork_tILi0EEEEENSF_INSQ_14continuation_tILi0EEEEEEEENS3_23basic_resolver_iteratorIS4_EENS1_25default_connect_conditionEZ4mainE3$_1ED2Ev.exit"

40:                                               ; preds = %27
  %41 = load i8, ptr @__libc_single_threaded, align 1, !tbaa !19
  %.not.i.i.i.i2.i = icmp eq i8 %41, 0
  br i1 %.not.i.i.i.i2.i, label %44, label %42

42:                                               ; preds = %40
  %43 = add nsw i32 %31, -1
  store i32 %43, ptr %28, align 4, !tbaa !21
  br label %_ZN9__gnu_cxx27__exchange_and_add_dispatchEPii.exit.i.i.i.i3.i

44:                                               ; preds = %40
  %45 = atomicrmw volatile add ptr %28, i32 -1 acq_rel, align 4
  br label %_ZN9__gnu_cxx27__exchange_and_add_dispatchEPii.exit.i.i.i.i3.i

_ZN9__gnu_cxx27__exchange_and_add_dispatchEPii.exit.i.i.i.i3.i: ; preds = %44, %42
  %.0.i.i.i.i.i4.i = phi i32 [ %31, %42 ], [ %45, %44 ]
  %46 = icmp eq i32 %.0.i.i.i.i.i4.i, 1
  br i1 %46, label %47, label %"_ZN5boost4asio6detail19iterator_connect_opINS0_2ip3tcpENS0_9execution12any_executorIJNS5_12context_as_tIRNS0_17execution_contextEEENS5_6detail8blocking7never_tILi0EEENS5_11prefer_onlyINSC_10possibly_tILi0EEEEENSF_INSB_16outstanding_work9tracked_tILi0EEEEENSF_INSJ_11untracked_tILi0EEEEENSF_INSB_12relationship6fork_tILi0EEEEENSF_INSQ_14continuation_tILi0EEEEEEEENS3_23basic_resolver_iteratorIS4_EENS1_25default_connect_conditionEZ4mainE3$_1ED2Ev.exit", !prof !15

47:                                               ; preds = %_ZN9__gnu_cxx27__exchange_and_add_dispatchEPii.exit.i.i.i.i3.i
  tail call void @_ZNSt16_Sp_counted_baseILN9__gnu_cxx12_Lock_policyE2EE24_M_release_last_use_coldEv(ptr noundef nonnull align 8 dereferenceable(16) %26) #36
  br label %"_ZN5boost4asio6detail19iterator_connect_opINS0_2ip3tcpENS0_9execution12any_executorIJNS5_12context_as_tIRNS0_17execution_contextEEENS5_6detail8blocking7never_tILi0EEENS5_11prefer_onlyINSC_10possibly_tILi0EEEEENSF_INSB_16outstanding_work9tracked_tILi0EEEEENSF_INSJ_11untracked_tILi0EEEEENSF_INSB_12relationship6fork_tILi0EEEEENSF_INSQ_14continuation_tILi0EEEEEEEENS3_23basic_resolver_iteratorIS4_EENS1_25default_connect_conditionEZ4mainE3$_1ED2Ev.exit"

"_ZN5boost4asio6detail19iterator_connect_opINS0_2ip3tcpENS0_9execution12any_executorIJNS5_12context_as_tIRNS0_17execution_contextEEENS5_6detail8blocking7never_tILi0EEENS5_11prefer_onlyINSC_10possibly_tILi0EEEEENSF_INSB_16outstanding_work9tracked_tILi0EEEEENSF_INSJ_11untracked_tILi0EEEEENSF_INSB_12relationship6fork_tILi0EEEEENSF_INSQ_14continuation_tILi0EEEEEEEENS3_23basic_resolver_iteratorIS4_EENS1_25default_connect_conditionEZ4mainE3$_1ED2Ev.exit": ; preds = %_ZN5boost4asio2ip23basic_resolver_iteratorINS1_3tcpEED2Ev.exit.i, %32, %_ZN9__gnu_cxx27__exchange_and_add_dispatchEPii.exit.i.i.i.i3.i, %47
  ret void
}